; ModuleID = '14/1326.c'
source_filename = "14/1326.c"
target datalayout = "e-m:e-p270:32:32-p271:32:32-p272:64:64-i64:64-f80:128-n8:16:32:64-S128"
target triple = "x86_64-pc-linux-gnu"

%struct.student = type { i32, i32, i32, i32 }

@.str = private unnamed_addr constant [3 x i8] c"%d\00", align 1
@.str.1 = private unnamed_addr constant [7 x i8] c"%d%d%d\00", align 1
@.str.2 = private unnamed_addr constant [7 x i8] c"%d %d\0A\00", align 1

; Function Attrs: noinline nounwind uwtable
define dso_local i32 @main() #0 {
  %1 = alloca i32, align 4
  %2 = alloca [4 x %struct.student], align 16
  %3 = alloca %struct.student, align 4
  %4 = alloca i32, align 4
  %5 = alloca i32, align 4
  %6 = alloca i32, align 4
  store i32 0, i32* %1, align 4
  %7 = bitcast [4 x %struct.student]* %2 to i8*
  call void @llvm.memset.p0i8.i64(i8* align 16 %7, i8 0, i64 64, i1 false)
  %8 = bitcast %struct.student* %3 to i8*
  call void @llvm.memset.p0i8.i64(i8* align 4 %8, i8 0, i64 16, i1 false)
  %9 = call i32 (i8*, ...) @__isoc99_scanf(i8* getelementptr inbounds ([3 x i8], [3 x i8]* @.str, i64 0, i64 0), i32* %6)
  store i32 0, i32* %4, align 4
  br label %10

10:                                               ; preds = %88, %0
  %11 = load i32, i32* %4, align 4
  %12 = load i32, i32* %6, align 4
  %13 = icmp slt i32 %11, %12
  br i1 %13, label %14, label %91

14:                                               ; preds = %10
  %15 = getelementptr inbounds [4 x %struct.student], [4 x %struct.student]* %2, i64 0, i64 3
  %16 = getelementptr inbounds %struct.student, %struct.student* %15, i32 0, i32 0
  %17 = getelementptr inbounds [4 x %struct.student], [4 x %struct.student]* %2, i64 0, i64 3
  %18 = getelementptr inbounds %struct.student, %struct.student* %17, i32 0, i32 1
  %19 = getelementptr inbounds [4 x %struct.student], [4 x %struct.student]* %2, i64 0, i64 3
  %20 = getelementptr inbounds %struct.student, %struct.student* %19, i32 0, i32 2
  %21 = call i32 (i8*, ...) @__isoc99_scanf(i8* getelementptr inbounds ([7 x i8], [7 x i8]* @.str.1, i64 0, i64 0), i32* %16, i32* %18, i32* %20)
  %22 = getelementptr inbounds [4 x %struct.student], [4 x %struct.student]* %2, i64 0, i64 3
  %23 = getelementptr inbounds %struct.student, %struct.student* %22, i32 0, i32 1
  %24 = load i32, i32* %23, align 4
  %25 = getelementptr inbounds [4 x %struct.student], [4 x %struct.student]* %2, i64 0, i64 3
  %26 = getelementptr inbounds %struct.student, %struct.student* %25, i32 0, i32 2
  %27 = load i32, i32* %26, align 8
  %28 = add nsw i32 %24, %27
  %29 = getelementptr inbounds [4 x %struct.student], [4 x %struct.student]* %2, i64 0, i64 3
  %30 = getelementptr inbounds %struct.student, %struct.student* %29, i32 0, i32 3
  store i32 %28, i32* %30, align 4
  %31 = getelementptr inbounds [4 x %struct.student], [4 x %struct.student]* %2, i64 0, i64 2
  %32 = getelementptr inbounds %struct.student, %struct.student* %31, i32 0, i32 3
  %33 = load i32, i32* %32, align 4
  %34 = getelementptr inbounds [4 x %struct.student], [4 x %struct.student]* %2, i64 0, i64 3
  %35 = getelementptr inbounds %struct.student, %struct.student* %34, i32 0, i32 3
  %36 = load i32, i32* %35, align 4
  %37 = icmp slt i32 %33, %36
  br i1 %37, label %38, label %49

38:                                               ; preds = %14
  %39 = getelementptr inbounds [4 x %struct.student], [4 x %struct.student]* %2, i64 0, i64 2
  %40 = bitcast %struct.student* %3 to i8*
  %41 = bitcast %struct.student* %39 to i8*
  call void @llvm.memcpy.p0i8.p0i8.i64(i8* align 4 %40, i8* align 16 %41, i64 16, i1 false)
  %42 = getelementptr inbounds [4 x %struct.student], [4 x %struct.student]* %2, i64 0, i64 2
  %43 = getelementptr inbounds [4 x %struct.student], [4 x %struct.student]* %2, i64 0, i64 3
  %44 = bitcast %struct.student* %42 to i8*
  %45 = bitcast %struct.student* %43 to i8*
  call void @llvm.memcpy.p0i8.p0i8.i64(i8* align 16 %44, i8* align 16 %45, i64 16, i1 false)
  %46 = getelementptr inbounds [4 x %struct.student], [4 x %struct.student]* %2, i64 0, i64 3
  %47 = bitcast %struct.student* %46 to i8*
  %48 = bitcast %struct.student* %3 to i8*
  call void @llvm.memcpy.p0i8.p0i8.i64(i8* align 16 %47, i8* align 4 %48, i64 16, i1 false)
  br label %49

49:                                               ; preds = %38, %14
  %50 = getelementptr inbounds [4 x %struct.student], [4 x %struct.student]* %2, i64 0, i64 1
  %51 = getelementptr inbounds %struct.student, %struct.student* %50, i32 0, i32 3
  %52 = load i32, i32* %51, align 4
  %53 = getelementptr inbounds [4 x %struct.student], [4 x %struct.student]* %2, i64 0, i64 2
  %54 = getelementptr inbounds %struct.student, %struct.student* %53, i32 0, i32 3
  %55 = load i32, i32* %54, align 4
  %56 = icmp slt i32 %52, %55
  br i1 %56, label %57, label %68

57:                                               ; preds = %49
  %58 = getelementptr inbounds [4 x %struct.student], [4 x %struct.student]* %2, i64 0, i64 1
  %59 = bitcast %struct.student* %3 to i8*
  %60 = bitcast %struct.student* %58 to i8*
  call void @llvm.memcpy.p0i8.p0i8.i64(i8* align 4 %59, i8* align 16 %60, i64 16, i1 false)
  %61 = getelementptr inbounds [4 x %struct.student], [4 x %struct.student]* %2, i64 0, i64 1
  %62 = getelementptr inbounds [4 x %struct.student], [4 x %struct.student]* %2, i64 0, i64 2
  %63 = bitcast %struct.student* %61 to i8*
  %64 = bitcast %struct.student* %62 to i8*
  call void @llvm.memcpy.p0i8.p0i8.i64(i8* align 16 %63, i8* align 16 %64, i64 16, i1 false)
  %65 = getelementptr inbounds [4 x %struct.student], [4 x %struct.student]* %2, i64 0, i64 2
  %66 = bitcast %struct.student* %65 to i8*
  %67 = bitcast %struct.student* %3 to i8*
  call void @llvm.memcpy.p0i8.p0i8.i64(i8* align 16 %66, i8* align 4 %67, i64 16, i1 false)
  br label %68

68:                                               ; preds = %57, %49
  %69 = getelementptr inbounds [4 x %struct.student], [4 x %struct.student]* %2, i64 0, i64 0
  %70 = getelementptr inbounds %struct.student, %struct.student* %69, i32 0, i32 3
  %71 = load i32, i32* %70, align 4
  %72 = getelementptr inbounds [4 x %struct.student], [4 x %struct.student]* %2, i64 0, i64 1
  %73 = getelementptr inbounds %struct.student, %struct.student* %72, i32 0, i32 3
  %74 = load i32, i32* %73, align 4
  %75 = icmp slt i32 %71, %74
  br i1 %75, label %76, label %87

76:                                               ; preds = %68
  %77 = getelementptr inbounds [4 x %struct.student], [4 x %struct.student]* %2, i64 0, i64 0
  %78 = bitcast %struct.student* %3 to i8*
  %79 = bitcast %struct.student* %77 to i8*
  call void @llvm.memcpy.p0i8.p0i8.i64(i8* align 4 %78, i8* align 16 %79, i64 16, i1 false)
  %80 = getelementptr inbounds [4 x %struct.student], [4 x %struct.student]* %2, i64 0, i64 0
  %81 = getelementptr inbounds [4 x %struct.student], [4 x %struct.student]* %2, i64 0, i64 1
  %82 = bitcast %struct.student* %80 to i8*
  %83 = bitcast %struct.student* %81 to i8*
  call void @llvm.memcpy.p0i8.p0i8.i64(i8* align 16 %82, i8* align 16 %83, i64 16, i1 false)
  %84 = getelementptr inbounds [4 x %struct.student], [4 x %struct.student]* %2, i64 0, i64 1
  %85 = bitcast %struct.student* %84 to i8*
  %86 = bitcast %struct.student* %3 to i8*
  call void @llvm.memcpy.p0i8.p0i8.i64(i8* align 16 %85, i8* align 4 %86, i64 16, i1 false)
  br label %87

87:                                               ; preds = %76, %68
  br label %88

88:                                               ; preds = %87
  %89 = load i32, i32* %4, align 4
  %90 = add nsw i32 %89, 1
  store i32 %90, i32* %4, align 4
  br label %10

91:                                               ; preds = %10
  store i32 0, i32* %5, align 4
  br label %92

92:                                               ; preds = %107, %91
  %93 = load i32, i32* %5, align 4
  %94 = icmp slt i32 %93, 3
  br i1 %94, label %95, label %110

95:                                               ; preds = %92
  %96 = load i32, i32* %5, align 4
  %97 = sext i32 %96 to i64
  %98 = getelementptr inbounds [4 x %struct.student], [4 x %struct.student]* %2, i64 0, i64 %97
  %99 = getelementptr inbounds %struct.student, %struct.student* %98, i32 0, i32 0
  %100 = load i32, i32* %99, align 16
  %101 = load i32, i32* %5, align 4
  %102 = sext i32 %101 to i64
  %103 = getelementptr inbounds [4 x %struct.student], [4 x %struct.student]* %2, i64 0, i64 %102
  %104 = getelementptr inbounds %struct.student, %struct.student* %103, i32 0, i32 3
  %105 = load i32, i32* %104, align 4
  %106 = call i32 (i8*, ...) @printf(i8* getelementptr inbounds ([7 x i8], [7 x i8]* @.str.2, i64 0, i64 0), i32 %100, i32 %105)
  br label %107

107:                                              ; preds = %95
  %108 = load i32, i32* %5, align 4
  %109 = add nsw i32 %108, 1
  store i32 %109, i32* %5, align 4
  br label %92

110:                                              ; preds = %92
  %111 = load i32, i32* %1, align 4
  ret i32 %111
}

; Function Attrs: argmemonly nounwind willreturn
declare void @llvm.memset.p0i8.i64(i8* nocapture writeonly, i8, i64, i1 immarg) #1

declare dso_local i32 @__isoc99_scanf(i8*, ...) #2

; Function Attrs: argmemonly nounwind willreturn
declare void @llvm.memcpy.p0i8.p0i8.i64(i8* noalias nocapture writeonly, i8* noalias nocapture readonly, i64, i1 immarg) #1

declare dso_local i32 @printf(i8*, ...) #2


!llvm.module.flags = !{!0}
!llvm.ident = !{!1}

!0 = !{i32 1, !"wchar_size", i32 4}
!1 = !{!"clang version 10.0.0-4ubuntu1 "}
